target datalayout = "e-m:e-p270:32:32-p271:32:32-p272:64:64-i64:64-i128:128-f80:128-n8:16:32:64-S128"
target triple = "x86_64-pc-linux-gnu"

%"class.std::__cxx11::basic_string" = type { %"struct.std::__cxx11::basic_string<char>::_Alloc_hider", i64, %union.anon }
%"struct.std::__cxx11::basic_string<char>::_Alloc_hider" = type { ptr }
%union.anon = type { i64, [8 x i8] }
%"struct.faiss::HeapArray.28" = type { i64, i64, ptr, ptr }

@.str.2 = private unnamed_addr constant [115 x i8] c"generated/home/dtcxzyw/WorkSpace/Projects/compilers/llvm-opt-benchmark/bench/faiss/faiss/faiss/utils/distances.cpp\00", align 1
@.str.7 = private unnamed_addr constant [19 x i8] c"Error: '%s' failed\00", align 1
@_ZTIN5faiss14FaissExceptionE = external constant ptr
@.str.9 = private unnamed_addr constant [14 x i8] c"res->nh == nx\00", align 1
@__PRETTY_FUNCTION__._ZN5faiss9knn_L2sqrEPKfS1_mmmPNS_9HeapArrayINS_4CMaxIflEEEES1_PKNS_10IDSelectorE = private unnamed_addr constant [136 x i8] c"void faiss::knn_L2sqr(const float *, const float *, size_t, size_t, size_t, float_maxheap_array_t *, const float *, const IDSelector *)\00", align 1

; Function Attrs: mustprogress uwtable
define void @_ZN5faiss9knn_L2sqrEPKfS1_mmmPNS_9HeapArrayINS_4CMaxIflEEEES1_PKNS_10IDSelectorE(ptr noundef %0, ptr noundef %1, i64 noundef %2, i64 noundef %3, i64 noundef %4, ptr noundef %5, ptr noundef %6, ptr noundef %7) #6 personality ptr @__gxx_personality_v0 {
  %9 = alloca ptr, align 8
  %10 = alloca ptr, align 8
  %11 = alloca i64, align 8
  %12 = alloca i64, align 8
  %13 = alloca i64, align 8
  %14 = alloca ptr, align 8
  %15 = alloca ptr, align 8
  %16 = alloca ptr, align 8
  %17 = alloca %"class.std::__cxx11::basic_string", align 8
  %18 = alloca i32, align 4
  %19 = alloca ptr, align 8
  %20 = alloca i32, align 4
  store ptr %0, ptr %9, align 8
  store ptr %1, ptr %10, align 8
  store i64 %2, ptr %11, align 8
  store i64 %3, ptr %12, align 8
  store i64 %4, ptr %13, align 8
  store ptr %5, ptr %14, align 8
  store ptr %6, ptr %15, align 8
  store ptr %7, ptr %16, align 8
  br label %21

21:                                               ; preds = %8
  %22 = load ptr, ptr %14, align 8
  %23 = getelementptr inbounds %"struct.faiss::HeapArray.28", ptr %22, i32 0, i32 0
  %24 = load i64, ptr %23, align 8
  %25 = load i64, ptr %12, align 8
  %26 = icmp eq i64 %24, %25
  br i1 %26, label %50, label %27

27:                                               ; preds = %21
  br label %28

28:                                               ; preds = %27
  call void @_ZNSt7__cxx1112basic_stringIcSt11char_traitsIcESaIcEEC1Ev(ptr noundef nonnull align 8 dereferenceable(32) %17) #2
  %29 = call i32 (ptr, i64, ptr, ...) @snprintf(ptr noundef null, i64 noundef 0, ptr noundef @.str.7, ptr noundef @.str.9) #2
  store i32 %29, ptr %18, align 4
  %30 = load i32, ptr %18, align 4
  %31 = add nsw i32 %30, 1
  %32 = sext i32 %31 to i64
  invoke void @_ZNSt7__cxx1112basic_stringIcSt11char_traitsIcESaIcEE6resizeEm(ptr noundef nonnull align 8 dereferenceable(32) %17, i64 noundef %32)
          to label %33 unwind label %40

33:                                               ; preds = %28
  %34 = invoke noundef nonnull align 1 dereferenceable(1) ptr @_ZNSt7__cxx1112basic_stringIcSt11char_traitsIcESaIcEEixEm(ptr noundef nonnull align 8 dereferenceable(32) %17, i64 noundef 0)
          to label %35 unwind label %40

35:                                               ; preds = %33
  %36 = call noundef i64 @_ZNKSt7__cxx1112basic_stringIcSt11char_traitsIcESaIcEE4sizeEv(ptr noundef nonnull align 8 dereferenceable(32) %17) #2
  %37 = call i32 (ptr, i64, ptr, ...) @snprintf(ptr noundef %34, i64 noundef %36, ptr noundef @.str.7, ptr noundef @.str.9) #2
  %38 = call ptr @__cxa_allocate_exception(i64 40) #2
  invoke void @_ZN5faiss14FaissExceptionC1ERKNSt7__cxx1112basic_stringIcSt11char_traitsIcESaIcEEEPKcSA_i(ptr noundef nonnull align 8 dereferenceable(40) %38, ptr noundef nonnull align 8 dereferenceable(32) %17, ptr noundef @__PRETTY_FUNCTION__._ZN5faiss9knn_L2sqrEPKfS1_mmmPNS_9HeapArrayINS_4CMaxIflEEEES1_PKNS_10IDSelectorE, ptr noundef @.str.2, i32 noundef 761)
          to label %39 unwind label %44

39:                                               ; preds = %35
  invoke void @__cxa_throw(ptr %38, ptr @_ZTIN5faiss14FaissExceptionE, ptr @_ZN5faiss14FaissExceptionD2Ev) #20
          to label %73 unwind label %40

40:                                               ; preds = %39, %33, %28
  %41 = landingpad { ptr, i32 }
          cleanup
  %42 = extractvalue { ptr, i32 } %41, 0
  store ptr %42, ptr %19, align 8
  %43 = extractvalue { ptr, i32 } %41, 1
  store i32 %43, ptr %20, align 4
  br label %48

44:                                               ; preds = %35
  %45 = landingpad { ptr, i32 }
          cleanup
  %46 = extractvalue { ptr, i32 } %45, 0
  store ptr %46, ptr %19, align 8
  %47 = extractvalue { ptr, i32 } %45, 1
  store i32 %47, ptr %20, align 4
  call void @__cxa_free_exception(ptr %38) #2
  br label %48

48:                                               ; preds = %44, %40
  call void @_ZNSt7__cxx1112basic_stringIcSt11char_traitsIcESaIcEED1Ev(ptr noundef nonnull align 8 dereferenceable(32) %17) #2
  br label %68

49:                                               ; No predecessors!
  br label %50

50:                                               ; preds = %49, %21
  br label %51

51:                                               ; preds = %50
  %52 = load ptr, ptr %9, align 8
  %53 = load ptr, ptr %10, align 8
  %54 = load i64, ptr %11, align 8
  %55 = load i64, ptr %12, align 8
  %56 = load i64, ptr %13, align 8
  %57 = load ptr, ptr %14, align 8
  %58 = getelementptr inbounds %"struct.faiss::HeapArray.28", ptr %57, i32 0, i32 1
  %59 = load i64, ptr %58, align 8
  %60 = load ptr, ptr %14, align 8
  %61 = getelementptr inbounds %"struct.faiss::HeapArray.28", ptr %60, i32 0, i32 3
  %62 = load ptr, ptr %61, align 8
  %63 = load ptr, ptr %14, align 8
  %64 = getelementptr inbounds %"struct.faiss::HeapArray.28", ptr %63, i32 0, i32 2
  %65 = load ptr, ptr %64, align 8
  %66 = load ptr, ptr %15, align 8
  %67 = load ptr, ptr %16, align 8
  call void @_ZN5faiss9knn_L2sqrEPKfS1_mmmmPfPlS1_PKNS_10IDSelectorE(ptr noundef %52, ptr noundef %53, i64 noundef %54, i64 noundef %55, i64 noundef %56, i64 noundef %59, ptr noundef %62, ptr noundef %65, ptr noundef %66, ptr noundef %67)
  ret void

68:                                               ; preds = %48
  %69 = load ptr, ptr %19, align 8
  %70 = load i32, ptr %20, align 4
  %71 = insertvalue { ptr, i32 } poison, ptr %69, 0
  %72 = insertvalue { ptr, i32 } %71, i32 %70, 1
  resume { ptr, i32 } %72

73:                                               ; preds = %39
  unreachable
}