; Function Attrs: mustprogress uwtable
define void @_ZN5faiss9knn_L2sqrEPKfS1_mmmPNS_9HeapArrayINS_4CMaxIflEEEES1_PKNS_10IDSelectorE(ptr noundef %0, ptr noundef %1, i64 noundef %2, i64 noundef %3, i64 noundef %4, ptr nocapture noundef readonly %5, ptr noundef %6, ptr noundef %7) local_unnamed_addr #6 personality ptr @__gxx_personality_v0 {
  %9 = alloca %"class.std::__cxx11::basic_string", align 8
  %10 = load i64, ptr %5, align 8
  %11 = icmp eq i64 %10, %3
  br i1 %11, label %28, label %12

12:                                               ; preds = %8
  call void @_ZNSt7__cxx1112basic_stringIcSt11char_traitsIcESaIcEEC1Ev(ptr noundef nonnull align 8 dereferenceable(32) %9) #2
  %13 = call i32 (ptr, i64, ptr, ...) @snprintf(ptr noundef null, i64 noundef 0, ptr noundef nonnull @.str.7, ptr noundef nonnull @.str.9) #2
  %14 = add nsw i32 %13, 1
  %15 = sext i32 %14 to i64
  invoke void @_ZNSt7__cxx1112basic_stringIcSt11char_traitsIcESaIcEE6resizeEm(ptr noundef nonnull align 8 dereferenceable(32) %9, i64 noundef %15)
          to label %16 unwind label %23

16:                                               ; preds = %12
  %17 = invoke noundef nonnull align 1 dereferenceable(1) ptr @_ZNSt7__cxx1112basic_stringIcSt11char_traitsIcESaIcEEixEm(ptr noundef nonnull align 8 dereferenceable(32) %9, i64 noundef 0)
          to label %18 unwind label %23

18:                                               ; preds = %16
  %19 = call noundef i64 @_ZNKSt7__cxx1112basic_stringIcSt11char_traitsIcESaIcEE4sizeEv(ptr noundef nonnull align 8 dereferenceable(32) %9) #2
  %20 = call i32 (ptr, i64, ptr, ...) @snprintf(ptr noundef nonnull %17, i64 noundef %19, ptr noundef nonnull @.str.7, ptr noundef nonnull @.str.9) #2
  %21 = call ptr @__cxa_allocate_exception(i64 40) #2
  invoke void @_ZN5faiss14FaissExceptionC1ERKNSt7__cxx1112basic_stringIcSt11char_traitsIcESaIcEEEPKcSA_i(ptr noundef nonnull align 8 dereferenceable(40) %21, ptr noundef nonnull align 8 dereferenceable(32) %9, ptr noundef nonnull @__PRETTY_FUNCTION__._ZN5faiss9knn_L2sqrEPKfS1_mmmPNS_9HeapArrayINS_4CMaxIflEEEES1_PKNS_10IDSelectorE, ptr noundef nonnull @.str.2, i32 noundef 761)
          to label %22 unwind label %25

22:                                               ; preds = %18
  invoke void @__cxa_throw(ptr nonnull %21, ptr nonnull @_ZTIN5faiss14FaissExceptionE, ptr nonnull @_ZN5faiss14FaissExceptionD2Ev) #25
          to label %35 unwind label %23

23:                                               ; preds = %22, %16, %12
  %24 = landingpad { ptr, i32 }
          cleanup
  br label %27

25:                                               ; preds = %18
  %26 = landingpad { ptr, i32 }
          cleanup
  call void @__cxa_free_exception(ptr %21) #2
  br label %27

27:                                               ; preds = %25, %23
  %.pn = phi { ptr, i32 } [ %24, %23 ], [ %26, %25 ]
  call void @_ZNSt7__cxx1112basic_stringIcSt11char_traitsIcESaIcEED1Ev(ptr noundef nonnull align 8 dereferenceable(32) %9) #2
  resume { ptr, i32 } %.pn

28:                                               ; preds = %8
  %29 = getelementptr inbounds i8, ptr %5, i64 8
  %30 = load i64, ptr %29, align 8
  %31 = getelementptr inbounds i8, ptr %5, i64 24
  %32 = load ptr, ptr %31, align 8
  %33 = getelementptr inbounds i8, ptr %5, i64 16
  %34 = load ptr, ptr %33, align 8
  tail call void @_ZN5faiss9knn_L2sqrEPKfS1_mmmmPfPlS1_PKNS_10IDSelectorE(ptr noundef %0, ptr noundef %1, i64 noundef %2, i64 noundef %3, i64 noundef %4, i64 noundef %30, ptr noundef %32, ptr noundef %34, ptr noundef %6, ptr noundef %7)
  ret void

35:                                               ; preds = %22
  unreachable
}